target datalayout = "e-m:e-p270:32:32-p271:32:32-p272:64:64-i64:64-i128:128-f80:128-n8:16:32:64-S128"
target triple = "x86_64-pc-linux-gnu"

%struct.SDL_BlitMap = type { i32, ptr, ptr, %struct.SDL_BlitInfo, i32, i32 }
%struct.SDL_BlitInfo = type { ptr, ptr, i32, i32, i32, i32, ptr, ptr, i32, i32, i32, i32, ptr, ptr, ptr, ptr, ptr, ptr, i32, i32, i8, i8, i8, i8 }

; Function Attrs: nounwind uwtable
define hidden void @SDL_InvalidateMap(ptr noundef %0) #0 {
  %2 = alloca ptr, align 8
  store ptr %0, ptr %2, align 8
  %3 = load ptr, ptr %2, align 8
  %4 = getelementptr inbounds nuw %struct.SDL_BlitMap, ptr %3, i32 0, i32 3
  %5 = getelementptr inbounds nuw %struct.SDL_BlitInfo, ptr %4, i32 0, i32 14
  store ptr null, ptr %5, align 8
  %6 = load ptr, ptr %2, align 8
  %7 = getelementptr inbounds nuw %struct.SDL_BlitMap, ptr %6, i32 0, i32 3
  %8 = getelementptr inbounds nuw %struct.SDL_BlitInfo, ptr %7, i32 0, i32 15
  store ptr null, ptr %8, align 8
  %9 = load ptr, ptr %2, align 8
  %10 = getelementptr inbounds nuw %struct.SDL_BlitMap, ptr %9, i32 0, i32 5
  store i32 0, ptr %10, align 4
  %11 = load ptr, ptr %2, align 8
  %12 = getelementptr inbounds nuw %struct.SDL_BlitMap, ptr %11, i32 0, i32 4
  store i32 0, ptr %12, align 8
  %13 = load ptr, ptr %2, align 8
  %14 = getelementptr inbounds nuw %struct.SDL_BlitMap, ptr %13, i32 0, i32 3
  %15 = getelementptr inbounds nuw %struct.SDL_BlitInfo, ptr %14, i32 0, i32 16
  %16 = load ptr, ptr %15, align 8
  %17 = icmp ne ptr %16, null
  br i1 %17, label %18, label %26

18:                                               ; preds = %1
  %19 = load ptr, ptr %2, align 8
  %20 = getelementptr inbounds nuw %struct.SDL_BlitMap, ptr %19, i32 0, i32 3
  %21 = getelementptr inbounds nuw %struct.SDL_BlitInfo, ptr %20, i32 0, i32 16
  %22 = load ptr, ptr %21, align 8
  call void @SDL_free_REAL(ptr noundef %22)
  %23 = load ptr, ptr %2, align 8
  %24 = getelementptr inbounds nuw %struct.SDL_BlitMap, ptr %23, i32 0, i32 3
  %25 = getelementptr inbounds nuw %struct.SDL_BlitInfo, ptr %24, i32 0, i32 16
  store ptr null, ptr %25, align 8
  br label %26

26:                                               ; preds = %18, %1
  %27 = load ptr, ptr %2, align 8
  %28 = getelementptr inbounds nuw %struct.SDL_BlitMap, ptr %27, i32 0, i32 3
  %29 = getelementptr inbounds nuw %struct.SDL_BlitInfo, ptr %28, i32 0, i32 17
  %30 = load ptr, ptr %29, align 8
  %31 = icmp ne ptr %30, null
  br i1 %31, label %32, label %40

32:                                               ; preds = %26
  %33 = load ptr, ptr %2, align 8
  %34 = getelementptr inbounds nuw %struct.SDL_BlitMap, ptr %33, i32 0, i32 3
  %35 = getelementptr inbounds nuw %struct.SDL_BlitInfo, ptr %34, i32 0, i32 17
  %36 = load ptr, ptr %35, align 8
  call void @SDL_DestroyHashTable(ptr noundef %36)
  %37 = load ptr, ptr %2, align 8
  %38 = getelementptr inbounds nuw %struct.SDL_BlitMap, ptr %37, i32 0, i32 3
  %39 = getelementptr inbounds nuw %struct.SDL_BlitInfo, ptr %38, i32 0, i32 17
  store ptr null, ptr %39, align 8
  br label %40

40:                                               ; preds = %32, %26
  ret void
}