; Function Attrs: nounwind uwtable
define hidden void @SDL_InvalidateMap(ptr noundef captures(none) initializes((104, 120), (152, 160)) %0) local_unnamed_addr #1 {
  %2 = getelementptr inbounds nuw i8, ptr %0, i64 104
  %3 = getelementptr inbounds nuw i8, ptr %0, i64 156
  store i32 0, ptr %3, align 4
  %4 = getelementptr inbounds nuw i8, ptr %0, i64 152
  store i32 0, ptr %4, align 8
  %5 = getelementptr inbounds nuw i8, ptr %0, i64 120
  tail call void @llvm.memset.p0.i64(ptr noundef nonnull align 8 dereferenceable(16) %2, i8 0, i64 16, i1 false)
  %6 = load ptr, ptr %5, align 8
  %.not = icmp eq ptr %6, null
  br i1 %.not, label %8, label %7

7:                                                ; preds = %1
  tail call void @SDL_free_REAL(ptr noundef nonnull %6) #15
  store ptr null, ptr %5, align 8
  br label %8

8:                                                ; preds = %7, %1
  %9 = getelementptr inbounds nuw i8, ptr %0, i64 128
  %10 = load ptr, ptr %9, align 8
  %.not11 = icmp eq ptr %10, null
  br i1 %.not11, label %12, label %11

11:                                               ; preds = %8
  tail call void @SDL_DestroyHashTable(ptr noundef nonnull %10) #15
  store ptr null, ptr %9, align 8
  br label %12

12:                                               ; preds = %11, %8
  ret void
}